target datalayout = "e-m:e-p270:32:32-p271:32:32-p272:64:64-i64:64-i128:128-f80:128-n8:16:32:64-S128"
target triple = "x86_64-pc-linux-gnu"

%"class.std::__cxx11::basic_string" = type { %"struct.std::__cxx11::basic_string<char>::_Alloc_hider", i64, %union.anon }
%"struct.std::__cxx11::basic_string<char>::_Alloc_hider" = type { ptr }
%union.anon = type { i64, [8 x i8] }
%"class.testing::internal::Mutex" = type { %"class.testing::internal::MutexBase" }
%"class.testing::internal::MutexBase" = type { %union.pthread_mutex_t, i8, i64 }
%union.pthread_mutex_t = type { %struct.__pthread_mutex_s }
%struct.__pthread_mutex_s = type { i32, i32, i32, i32, i32, i16, i16, %struct.__pthread_internal_list }
%struct.__pthread_internal_list = type { ptr, ptr }
%"class.testing::internal::UnitTestImpl" = type <{ ptr, ptr, %"class.testing::internal::FilePath", %"class.testing::internal::DefaultGlobalTestPartResultReporter", %"class.testing::internal::DefaultPerThreadTestPartResultReporter", ptr, %"class.testing::internal::Mutex", %"class.testing::internal::ThreadLocal", %"class.std::vector", %"class.std::vector.21", %"class.std::unordered_map", %"class.std::vector.31", %"class.testing::internal::ParameterizedTestSuiteRegistry", %"class.testing::internal::TypeParameterizedTestSuiteRegistry", %"class.std::set", i8, [3 x i8], i32, ptr, ptr, %"class.testing::TestResult", %"class.testing::TestEventListeners", ptr, i8, [3 x i8], i32, %"class.testing::internal::Random", [4 x i8], i64, i64, %"class.std::unique_ptr.72", %"class.std::unique_ptr.80", %"class.testing::internal::ThreadLocal.88", i8, [7 x i8] }>
%"class.testing::internal::FilePath" = type { %"class.std::__cxx11::basic_string" }
%"class.testing::internal::DefaultGlobalTestPartResultReporter" = type { %"class.testing::TestPartResultReporterInterface", ptr }
%"class.testing::TestPartResultReporterInterface" = type { ptr }
%"class.testing::internal::DefaultPerThreadTestPartResultReporter" = type { %"class.testing::TestPartResultReporterInterface", ptr }
%"class.testing::internal::ThreadLocal" = type { i32, %"class.std::unique_ptr.10" }
%"class.std::unique_ptr.10" = type { %"struct.std::__uniq_ptr_data.11" }
%"struct.std::__uniq_ptr_data.11" = type { %"class.std::__uniq_ptr_impl.12" }
%"class.std::__uniq_ptr_impl.12" = type { %"class.std::tuple.13" }
%"class.std::tuple.13" = type { %"struct.std::_Tuple_impl.14" }
%"struct.std::_Tuple_impl.14" = type { %"struct.std::_Head_base.17" }
%"struct.std::_Head_base.17" = type { ptr }
%"class.std::vector" = type { %"struct.std::_Vector_base" }
%"struct.std::_Vector_base" = type { %"struct.std::_Vector_base<testing::Environment *, std::allocator<testing::Environment *>>::_Vector_impl" }
%"struct.std::_Vector_base<testing::Environment *, std::allocator<testing::Environment *>>::_Vector_impl" = type { %"struct.std::_Vector_base<testing::Environment *, std::allocator<testing::Environment *>>::_Vector_impl_data" }
%"struct.std::_Vector_base<testing::Environment *, std::allocator<testing::Environment *>>::_Vector_impl_data" = type { ptr, ptr, ptr }
%"class.std::vector.21" = type { %"struct.std::_Vector_base.22" }
%"struct.std::_Vector_base.22" = type { %"struct.std::_Vector_base<testing::TestSuite *, std::allocator<testing::TestSuite *>>::_Vector_impl" }
%"struct.std::_Vector_base<testing::TestSuite *, std::allocator<testing::TestSuite *>>::_Vector_impl" = type { %"struct.std::_Vector_base<testing::TestSuite *, std::allocator<testing::TestSuite *>>::_Vector_impl_data" }
%"struct.std::_Vector_base<testing::TestSuite *, std::allocator<testing::TestSuite *>>::_Vector_impl_data" = type { ptr, ptr, ptr }
%"class.std::unordered_map" = type { %"class.std::_Hashtable" }
%"class.std::_Hashtable" = type { ptr, i64, %"struct.std::__detail::_Hash_node_base", i64, %"struct.std::__detail::_Prime_rehash_policy", ptr }
%"struct.std::__detail::_Hash_node_base" = type { ptr }
%"struct.std::__detail::_Prime_rehash_policy" = type { float, i64 }
%"class.std::vector.31" = type { %"struct.std::_Vector_base.32" }
%"struct.std::_Vector_base.32" = type { %"struct.std::_Vector_base<int, std::allocator<int>>::_Vector_impl" }
%"struct.std::_Vector_base<int, std::allocator<int>>::_Vector_impl" = type { %"struct.std::_Vector_base<int, std::allocator<int>>::_Vector_impl_data" }
%"struct.std::_Vector_base<int, std::allocator<int>>::_Vector_impl_data" = type { ptr, ptr, ptr }
%"class.testing::internal::ParameterizedTestSuiteRegistry" = type { %"class.std::vector.36", %"class.std::unordered_map.41" }
%"class.std::vector.36" = type { %"struct.std::_Vector_base.37" }
%"struct.std::_Vector_base.37" = type { %"struct.std::_Vector_base<testing::internal::ParameterizedTestSuiteInfoBase *, std::allocator<testing::internal::ParameterizedTestSuiteInfoBase *>>::_Vector_impl" }
%"struct.std::_Vector_base<testing::internal::ParameterizedTestSuiteInfoBase *, std::allocator<testing::internal::ParameterizedTestSuiteInfoBase *>>::_Vector_impl" = type { %"struct.std::_Vector_base<testing::internal::ParameterizedTestSuiteInfoBase *, std::allocator<testing::internal::ParameterizedTestSuiteInfoBase *>>::_Vector_impl_data" }
%"struct.std::_Vector_base<testing::internal::ParameterizedTestSuiteInfoBase *, std::allocator<testing::internal::ParameterizedTestSuiteInfoBase *>>::_Vector_impl_data" = type { ptr, ptr, ptr }
%"class.std::unordered_map.41" = type { %"class.std::_Hashtable.42" }
%"class.std::_Hashtable.42" = type { ptr, i64, %"struct.std::__detail::_Hash_node_base", i64, %"struct.std::__detail::_Prime_rehash_policy", ptr }
%"class.testing::internal::TypeParameterizedTestSuiteRegistry" = type { %"class.std::map" }
%"class.std::map" = type { %"class.std::_Rb_tree" }
%"class.std::_Rb_tree" = type { %"struct.std::_Rb_tree<std::__cxx11::basic_string<char>, std::pair<const std::__cxx11::basic_string<char>, testing::internal::TypeParameterizedTestSuiteRegistry::TypeParameterizedTestSuiteInfo>, std::_Select1st<std::pair<const std::__cxx11::basic_string<char>, testing::internal::TypeParameterizedTestSuiteRegistry::TypeParameterizedTestSuiteInfo>>, std::less<std::__cxx11::basic_string<char>>>::_Rb_tree_impl" }
%"struct.std::_Rb_tree<std::__cxx11::basic_string<char>, std::pair<const std::__cxx11::basic_string<char>, testing::internal::TypeParameterizedTestSuiteRegistry::TypeParameterizedTestSuiteInfo>, std::_Select1st<std::pair<const std::__cxx11::basic_string<char>, testing::internal::TypeParameterizedTestSuiteRegistry::TypeParameterizedTestSuiteInfo>>, std::less<std::__cxx11::basic_string<char>>>::_Rb_tree_impl" = type { [8 x i8], %"struct.std::_Rb_tree_header" }
%"struct.std::_Rb_tree_header" = type { %"struct.std::_Rb_tree_node_base", i64 }
%"struct.std::_Rb_tree_node_base" = type { i32, ptr, ptr, ptr }
%"class.std::set" = type { %"class.std::_Rb_tree.58" }
%"class.std::_Rb_tree.58" = type { %"struct.std::_Rb_tree<std::__cxx11::basic_string<char>, std::__cxx11::basic_string<char>, std::_Identity<std::__cxx11::basic_string<char>>, std::less<std::__cxx11::basic_string<char>>>::_Rb_tree_impl" }
%"struct.std::_Rb_tree<std::__cxx11::basic_string<char>, std::__cxx11::basic_string<char>, std::_Identity<std::__cxx11::basic_string<char>>, std::less<std::__cxx11::basic_string<char>>>::_Rb_tree_impl" = type { [8 x i8], %"struct.std::_Rb_tree_header" }
%"class.testing::TestResult" = type { %"class.testing::internal::Mutex", %"class.std::vector.62", %"class.std::vector.67", i32, i64, i64 }
%"class.std::vector.62" = type { %"struct.std::_Vector_base.63" }
%"struct.std::_Vector_base.63" = type { %"struct.std::_Vector_base<testing::TestPartResult, std::allocator<testing::TestPartResult>>::_Vector_impl" }
%"struct.std::_Vector_base<testing::TestPartResult, std::allocator<testing::TestPartResult>>::_Vector_impl" = type { %"struct.std::_Vector_base<testing::TestPartResult, std::allocator<testing::TestPartResult>>::_Vector_impl_data" }
%"struct.std::_Vector_base<testing::TestPartResult, std::allocator<testing::TestPartResult>>::_Vector_impl_data" = type { ptr, ptr, ptr }
%"class.std::vector.67" = type { %"struct.std::_Vector_base.68" }
%"struct.std::_Vector_base.68" = type { %"struct.std::_Vector_base<testing::TestProperty, std::allocator<testing::TestProperty>>::_Vector_impl" }
%"struct.std::_Vector_base<testing::TestProperty, std::allocator<testing::TestProperty>>::_Vector_impl" = type { %"struct.std::_Vector_base<testing::TestProperty, std::allocator<testing::TestProperty>>::_Vector_impl_data" }
%"struct.std::_Vector_base<testing::TestProperty, std::allocator<testing::TestProperty>>::_Vector_impl_data" = type { ptr, ptr, ptr }
%"class.testing::TestEventListeners" = type { ptr, ptr, ptr }
%"class.testing::internal::Random" = type { i32 }
%"class.std::unique_ptr.72" = type { %"struct.std::__uniq_ptr_data.73" }
%"struct.std::__uniq_ptr_data.73" = type { %"class.std::__uniq_ptr_impl.74" }
%"class.std::__uniq_ptr_impl.74" = type { %"class.std::tuple.75" }
%"class.std::tuple.75" = type { %"struct.std::_Tuple_impl.76" }
%"struct.std::_Tuple_impl.76" = type { %"struct.std::_Head_base.79" }
%"struct.std::_Head_base.79" = type { ptr }
%"class.std::unique_ptr.80" = type { %"struct.std::__uniq_ptr_data.81" }
%"struct.std::__uniq_ptr_data.81" = type { %"class.std::__uniq_ptr_impl.82" }
%"class.std::__uniq_ptr_impl.82" = type { %"class.std::tuple.83" }
%"class.std::tuple.83" = type { %"struct.std::_Tuple_impl.84" }
%"struct.std::_Tuple_impl.84" = type { %"struct.std::_Head_base.87" }
%"struct.std::_Head_base.87" = type { ptr }
%"class.testing::internal::ThreadLocal.88" = type { i32, %"class.std::unique_ptr.89" }
%"class.std::unique_ptr.89" = type { %"struct.std::__uniq_ptr_data.90" }
%"struct.std::__uniq_ptr_data.90" = type { %"class.std::__uniq_ptr_impl.91" }
%"class.std::__uniq_ptr_impl.91" = type { %"class.std::tuple.92" }
%"class.std::tuple.92" = type { %"struct.std::_Tuple_impl.93" }
%"struct.std::_Tuple_impl.93" = type { %"struct.std::_Head_base.96" }
%"struct.std::_Head_base.96" = type { ptr }

@_ZN7testing29FLAGS_gtest_stack_trace_depthE = dso_local global i32 0, align 4

; Function Attrs: mustprogress nounwind uwtable
define linkonce_odr dso_local void @_ZN7testing8internal27OsStackTraceGetterInterfaceC2Ev(ptr noundef nonnull align 8 dereferenceable(8) %0) unnamed_addr #7 comdat align 2 {
  %2 = alloca ptr, align 8
  store ptr %0, ptr %2, align 8, !tbaa !918
  %3 = load ptr, ptr %2, align 8
  store ptr getelementptr inbounds inrange(-16, 32) ({ [6 x ptr] }, ptr @_ZTVN7testing8internal27OsStackTraceGetterInterfaceE, i32 0, i32 0, i32 2), ptr %3, align 8, !tbaa !50
  ret void
}

; Function Attrs: mustprogress nounwind uwtable
define linkonce_odr dso_local void @_ZN7testing8internal18OsStackTraceGetterC2Ev(ptr noundef nonnull align 8 dereferenceable(8) %0) unnamed_addr #7 comdat align 2 {
  %2 = alloca ptr, align 8
  store ptr %0, ptr %2, align 8, !tbaa !840
  %3 = load ptr, ptr %2, align 8
  call void @_ZN7testing8internal27OsStackTraceGetterInterfaceC2Ev(ptr noundef nonnull align 8 dereferenceable(8) %3) #3
  store ptr getelementptr inbounds inrange(-16, 32) ({ [6 x ptr] }, ptr @_ZTVN7testing8internal18OsStackTraceGetterE, i32 0, i32 0, i32 2), ptr %3, align 8, !tbaa !50
  ret void
}

; Function Attrs: mustprogress uwtable
define dso_local noundef ptr @_ZN7testing8internal12UnitTestImpl21os_stack_trace_getterEv(ptr noundef nonnull align 8 dereferenceable(713) %0) #4 align 2 {
  %2 = alloca ptr, align 8
  store ptr %0, ptr %2, align 8, !tbaa !54
  %3 = load ptr, ptr %2, align 8
  %4 = getelementptr inbounds nuw %"class.testing::internal::UnitTestImpl", ptr %3, i32 0, i32 22
  %5 = load ptr, ptr %4, align 8, !tbaa !528
  %6 = icmp eq ptr %5, null
  br i1 %6, label %7, label %10

7:                                                ; preds = %1
  %8 = call noalias noundef nonnull ptr @_Znwm(i64 noundef 8) #31
  call void @_ZN7testing8internal18OsStackTraceGetterC2Ev(ptr noundef nonnull align 8 dereferenceable(8) %8) #3
  %9 = getelementptr inbounds nuw %"class.testing::internal::UnitTestImpl", ptr %3, i32 0, i32 22
  store ptr %8, ptr %9, align 8, !tbaa !528
  br label %10

10:                                               ; preds = %7, %1
  %11 = getelementptr inbounds nuw %"class.testing::internal::UnitTestImpl", ptr %3, i32 0, i32 22
  %12 = load ptr, ptr %11, align 8, !tbaa !528
  ret ptr %12
}

; Function Attrs: mustprogress noinline uwtable
define dso_local void @_ZN7testing8internal12UnitTestImpl28CurrentOsStackTraceExceptTopB5cxx11Ei(ptr dead_on_unwind noalias writable sret(%"class.std::__cxx11::basic_string") align 8 %0, ptr noundef nonnull align 8 dereferenceable(713) %1, i32 noundef %2) #19 align 2 {
  %4 = alloca ptr, align 8
  %5 = alloca ptr, align 8
  %6 = alloca i32, align 4
  store ptr %0, ptr %4, align 8
  store ptr %1, ptr %5, align 8, !tbaa !54
  store i32 %2, ptr %6, align 4, !tbaa !40
  %7 = load ptr, ptr %5, align 8
  %8 = call noundef ptr @_ZN7testing8internal12UnitTestImpl21os_stack_trace_getterEv(ptr noundef nonnull align 8 dereferenceable(713) %7)
  %9 = load i32, ptr @_ZN7testing29FLAGS_gtest_stack_trace_depthE, align 4, !tbaa !40
  %10 = load i32, ptr %6, align 4, !tbaa !40
  %11 = add nsw i32 %10, 1
  %12 = load ptr, ptr %8, align 8, !tbaa !50
  %13 = getelementptr inbounds ptr, ptr %12, i64 2
  %14 = load ptr, ptr %13, align 8
  call void %14(ptr dead_on_unwind writable sret(%"class.std::__cxx11::basic_string") align 8 %0, ptr noundef nonnull align 8 dereferenceable(8) %8, i32 noundef %9, i32 noundef %11)
  ret void
}