; Function Attrs: mustprogress noinline uwtable
define dso_local void @_ZN7testing8internal12UnitTestImpl28CurrentOsStackTraceExceptTopB5cxx11Ei(ptr dead_on_unwind noalias writable sret(%"class.std::__cxx11::basic_string") align 8 %0, ptr noundef nonnull align 8 captures(none) dereferenceable(713) %1, i32 noundef %2) local_unnamed_addr #32 align 2 {
  %4 = getelementptr inbounds nuw i8, ptr %1, i64 640
  %5 = load ptr, ptr %4, align 8, !tbaa !606
  %6 = icmp eq ptr %5, null
  br i1 %6, label %7, label %._ZN7testing8internal12UnitTestImpl21os_stack_trace_getterEv.exit_crit_edge

._ZN7testing8internal12UnitTestImpl21os_stack_trace_getterEv.exit_crit_edge: ; preds = %3
  %.pre = load ptr, ptr %5, align 8, !tbaa !33
  br label %_ZN7testing8internal12UnitTestImpl21os_stack_trace_getterEv.exit

7:                                                ; preds = %3
  %8 = call noalias noundef nonnull dereferenceable(8) ptr @_Znwm(i64 noundef 8) #56
  store ptr getelementptr inbounds nuw inrange(-16, 32) (i8, ptr @_ZTVN7testing8internal18OsStackTraceGetterE, i64 16), ptr %8, align 8, !tbaa !33
  store ptr %8, ptr %4, align 8, !tbaa !606
  br label %_ZN7testing8internal12UnitTestImpl21os_stack_trace_getterEv.exit

_ZN7testing8internal12UnitTestImpl21os_stack_trace_getterEv.exit: ; preds = %._ZN7testing8internal12UnitTestImpl21os_stack_trace_getterEv.exit_crit_edge, %7
  %9 = phi ptr [ getelementptr inbounds nuw inrange(-16, 32) (i8, ptr @_ZTVN7testing8internal18OsStackTraceGetterE, i64 16), %7 ], [ %.pre, %._ZN7testing8internal12UnitTestImpl21os_stack_trace_getterEv.exit_crit_edge ]
  %10 = phi ptr [ %8, %7 ], [ %5, %._ZN7testing8internal12UnitTestImpl21os_stack_trace_getterEv.exit_crit_edge ]
  %11 = load i32, ptr @_ZN7testing29FLAGS_gtest_stack_trace_depthE, align 4, !tbaa !55
  %12 = add nsw i32 %2, 1
  %13 = getelementptr inbounds nuw i8, ptr %9, i64 16
  %14 = load ptr, ptr %13, align 8
  call void %14(ptr dead_on_unwind writable sret(%"class.std::__cxx11::basic_string") align 8 %0, ptr noundef nonnull align 8 dereferenceable(8) %10, i32 noundef %11, i32 noundef %12)
  ret void
}